; Function Attrs: mustprogress uwtable
define dso_local void @_ZNK4pbrt14SPPMIntegrator8ToStringB5cxx11Ev(ptr noalias nonnull sret(%"class.std::__cxx11::basic_string") align 8 %agg.result, ptr noundef nonnull align 8 dereferenceable(112) %this) unnamed_addr #1 align 2 personality ptr @__gxx_personality_v0 {
entry:
  %camera = getelementptr inbounds i8, ptr %this, i64 64
  %initialSearchRadius = getelementptr inbounds i8, ptr %this, i64 72
  %maxDepth = getelementptr inbounds i8, ptr %this, i64 92
  %photonsPerIteration = getelementptr inbounds i8, ptr %this, i64 96
  %colorSpace = getelementptr inbounds i8, ptr %this, i64 104
  %0 = load ptr, ptr %colorSpace, align 8
  tail call void @_ZNSt7__cxx1112basic_stringIcSt11char_traitsIcESaIcEEC1Ev(ptr noundef nonnull align 8 dereferenceable(32) %agg.result) #31
  invoke void @_ZN4pbrt6detail21stringPrintfRecursiveIRKNS_6CameraEJRKfRKiS8_RKNS_13RGBColorSpaceEEEEvPNSt7__cxx1112basic_stringIcSt11char_traitsIcESaIcEEEPKcOT_DpOT0_(ptr noundef nonnull %agg.result, ptr noundef nonnull @.str.85, ptr noundef nonnull align 8 dereferenceable(8) %camera, ptr noundef nonnull align 4 dereferenceable(4) %initialSearchRadius, ptr noundef nonnull align 4 dereferenceable(4) %maxDepth, ptr noundef nonnull align 4 dereferenceable(4) %photonsPerIteration, ptr noundef nonnull align 8 dereferenceable(152) %0)
          to label %_ZN4pbrt12StringPrintfIJRKNS_6CameraERKfRKiS7_RKNS_13RGBColorSpaceEEEENSt7__cxx1112basic_stringIcSt11char_traitsIcESaIcEEEPKcDpOT_.exit unwind label %lpad.i

lpad.i:                                           ; preds = %entry
  %1 = landingpad { ptr, i32 }
          cleanup
  tail call void @_ZNSt7__cxx1112basic_stringIcSt11char_traitsIcESaIcEED1Ev(ptr noundef nonnull align 8 dereferenceable(32) %agg.result) #31
  resume { ptr, i32 } %1

_ZN4pbrt12StringPrintfIJRKNS_6CameraERKfRKiS7_RKNS_13RGBColorSpaceEEEENSt7__cxx1112basic_stringIcSt11char_traitsIcESaIcEEEPKcDpOT_.exit: ; preds = %entry
  ret void
}